; Function Attrs: mustprogress nounwind willreturn memory(argmem: readwrite, inaccessiblemem: readwrite) uwtable
define internal noundef i32 @CorrelCleanUp(ptr noundef %0, ptr noundef %1, ptr readnone captures(none) %2) #3 {
  %.not = icmp eq ptr %0, null
  br i1 %.not, label %5, label %4

4:                                                ; preds = %3
  tail call void @free(ptr noundef nonnull %0) #7
  br label %5

5:                                                ; preds = %3, %4
  %.not7 = icmp eq ptr %1, null
  br i1 %.not7, label %7, label %6

6:                                                ; preds = %5
  tail call void @free(ptr noundef nonnull %1) #7
  br label %7

7:                                                ; preds = %5, %6
  ret i32 0
}